target datalayout = "e-m:e-p270:32:32-p271:32:32-p272:64:64-i64:64-i128:128-f80:128-n8:16:32:64-S128"
target triple = "x86_64-pc-linux-gnu"

%"class.cvc5::parser::Cmd" = type { ptr, ptr }
%"struct.std::_Rb_tree_header" = type { %"struct.std::_Rb_tree_node_base", i64 }
%"struct.std::_Rb_tree_node_base" = type { i32, ptr, ptr, ptr }
%"class.cvc5::parser::GetDifficultyCommand" = type { %"class.cvc5::parser::Cmd", ptr, %"class.std::map.311" }
%"class.std::map.311" = type { %"class.std::_Rb_tree.312" }
%"class.std::_Rb_tree.312" = type { %"struct.std::_Rb_tree<cvc5::Term, std::pair<const cvc5::Term, cvc5::Term>, std::_Select1st<std::pair<const cvc5::Term, cvc5::Term>>, std::less<cvc5::Term>>::_Rb_tree_impl" }
%"struct.std::_Rb_tree<cvc5::Term, std::pair<const cvc5::Term, cvc5::Term>, std::_Select1st<std::pair<const cvc5::Term, cvc5::Term>>, std::less<cvc5::Term>>::_Rb_tree_impl" = type { [8 x i8], %"struct.std::_Rb_tree_header" }

; Function Attrs: noinline noreturn nounwind uwtable
define linkonce_odr hidden void @__clang_call_terminate(ptr noundef %0) #9 comdat {
  %2 = call ptr @__cxa_begin_catch(ptr %0) #3
  call void @_ZSt9terminatev() #23
  unreachable
}

; Function Attrs: mustprogress nounwind uwtable
define linkonce_odr hidden void @_ZNSt15_Rb_tree_header8_M_resetEv(ptr noundef nonnull align 8 dereferenceable(40) %0) #7 comdat align 2 {
  %2 = alloca ptr, align 8
  store ptr %0, ptr %2, align 8, !tbaa !535
  %3 = load ptr, ptr %2, align 8
  %4 = getelementptr inbounds nuw %"struct.std::_Rb_tree_header", ptr %3, i32 0, i32 0
  %5 = getelementptr inbounds nuw %"struct.std::_Rb_tree_node_base", ptr %4, i32 0, i32 1
  store ptr null, ptr %5, align 8, !tbaa !521
  %6 = getelementptr inbounds nuw %"struct.std::_Rb_tree_header", ptr %3, i32 0, i32 0
  %7 = getelementptr inbounds nuw %"struct.std::_Rb_tree_header", ptr %3, i32 0, i32 0
  %8 = getelementptr inbounds nuw %"struct.std::_Rb_tree_node_base", ptr %7, i32 0, i32 2
  store ptr %6, ptr %8, align 8, !tbaa !540
  %9 = getelementptr inbounds nuw %"struct.std::_Rb_tree_header", ptr %3, i32 0, i32 0
  %10 = getelementptr inbounds nuw %"struct.std::_Rb_tree_header", ptr %3, i32 0, i32 0
  %11 = getelementptr inbounds nuw %"struct.std::_Rb_tree_node_base", ptr %10, i32 0, i32 3
  store ptr %9, ptr %11, align 8, !tbaa !541
  %12 = getelementptr inbounds nuw %"struct.std::_Rb_tree_header", ptr %3, i32 0, i32 1
  store i64 0, ptr %12, align 8, !tbaa !542
  ret void
}

; Function Attrs: mustprogress nounwind uwtable
define linkonce_odr hidden void @_ZNSt15__new_allocatorISt13_Rb_tree_nodeISt4pairIKN4cvc54TermES3_EEEC2Ev(ptr noundef nonnull align 1 dereferenceable(1) %0) unnamed_addr #7 comdat align 2 {
  %2 = alloca ptr, align 8
  store ptr %0, ptr %2, align 8, !tbaa !538
  ret void
}

; Function Attrs: mustprogress nounwind uwtable
define linkonce_odr hidden void @_ZNSt15_Rb_tree_headerC2Ev(ptr noundef nonnull align 8 dereferenceable(40) %0) unnamed_addr #7 comdat align 2 personality ptr @__gxx_personality_v0 {
  %2 = alloca ptr, align 8
  store ptr %0, ptr %2, align 8, !tbaa !535
  %3 = load ptr, ptr %2, align 8
  %4 = getelementptr inbounds nuw %"struct.std::_Rb_tree_header", ptr %3, i32 0, i32 0
  %5 = getelementptr inbounds nuw %"struct.std::_Rb_tree_node_base", ptr %4, i32 0, i32 0
  store i32 0, ptr %5, align 8, !tbaa !537
  invoke void @_ZNSt15_Rb_tree_header8_M_resetEv(ptr noundef nonnull align 8 dereferenceable(40) %3)
          to label %6 unwind label %7

6:                                                ; preds = %1
  ret void

7:                                                ; preds = %1
  %8 = landingpad { ptr, i32 }
          catch ptr null
  %9 = extractvalue { ptr, i32 } %8, 0
  call void @__clang_call_terminate(ptr %9) #23
  unreachable
}

; Function Attrs: mustprogress nounwind uwtable
define linkonce_odr hidden void @_ZNSt20_Rb_tree_key_compareISt4lessIN4cvc54TermEEEC2Ev(ptr noundef nonnull align 1 dereferenceable(1) %0) unnamed_addr #7 comdat align 2 {
  %2 = alloca ptr, align 8
  store ptr %0, ptr %2, align 8, !tbaa !533
  ret void
}

; Function Attrs: mustprogress nounwind uwtable
define linkonce_odr hidden void @_ZNSaISt13_Rb_tree_nodeISt4pairIKN4cvc54TermES2_EEEC2Ev(ptr noundef nonnull align 1 dereferenceable(1) %0) unnamed_addr #7 comdat align 2 {
  %2 = alloca ptr, align 8
  store ptr %0, ptr %2, align 8, !tbaa !531
  %3 = load ptr, ptr %2, align 8
  call void @_ZNSt15__new_allocatorISt13_Rb_tree_nodeISt4pairIKN4cvc54TermES3_EEEC2Ev(ptr noundef nonnull align 1 dereferenceable(1) %3) #3
  ret void
}

; Function Attrs: mustprogress nounwind uwtable
define linkonce_odr hidden void @_ZNSt8_Rb_treeIN4cvc54TermESt4pairIKS1_S1_ESt10_Select1stIS4_ESt4lessIS1_ESaIS4_EE13_Rb_tree_implIS8_Lb1EEC2Ev(ptr noundef nonnull align 8 dereferenceable(48) %0) unnamed_addr #7 comdat align 2 {
  %2 = alloca ptr, align 8
  store ptr %0, ptr %2, align 8, !tbaa !529
  %3 = load ptr, ptr %2, align 8
  call void @_ZNSaISt13_Rb_tree_nodeISt4pairIKN4cvc54TermES2_EEEC2Ev(ptr noundef nonnull align 1 dereferenceable(1) %3) #3
  call void @_ZNSt20_Rb_tree_key_compareISt4lessIN4cvc54TermEEEC2Ev(ptr noundef nonnull align 1 dereferenceable(1) %3) #3
  %4 = getelementptr inbounds i8, ptr %3, i64 8
  call void @_ZNSt15_Rb_tree_headerC2Ev(ptr noundef nonnull align 8 dereferenceable(40) %4) #3
  ret void
}

; Function Attrs: mustprogress nounwind uwtable
define linkonce_odr hidden void @_ZNSt8_Rb_treeIN4cvc54TermESt4pairIKS1_S1_ESt10_Select1stIS4_ESt4lessIS1_ESaIS4_EEC2Ev(ptr noundef nonnull align 8 dereferenceable(48) %0) unnamed_addr #7 comdat align 2 {
  %2 = alloca ptr, align 8
  store ptr %0, ptr %2, align 8, !tbaa !527
  %3 = load ptr, ptr %2, align 8
  %4 = getelementptr inbounds nuw %"class.std::_Rb_tree.312", ptr %3, i32 0, i32 0
  call void @_ZNSt8_Rb_treeIN4cvc54TermESt4pairIKS1_S1_ESt10_Select1stIS4_ESt4lessIS1_ESaIS4_EE13_Rb_tree_implIS8_Lb1EEC2Ev(ptr noundef nonnull align 8 dereferenceable(48) %4) #3
  ret void
}

; Function Attrs: mustprogress nounwind uwtable
define linkonce_odr hidden void @_ZNSt3mapIN4cvc54TermES1_St4lessIS1_ESaISt4pairIKS1_S1_EEEC2Ev(ptr noundef nonnull align 8 dereferenceable(48) %0) unnamed_addr #7 comdat align 2 {
  %2 = alloca ptr, align 8
  store ptr %0, ptr %2, align 8, !tbaa !365
  %3 = load ptr, ptr %2, align 8
  %4 = getelementptr inbounds nuw %"class.std::map.311", ptr %3, i32 0, i32 0
  call void @_ZNSt8_Rb_treeIN4cvc54TermESt4pairIKS1_S1_ESt10_Select1stIS4_ESt4lessIS1_ESaIS4_EEC2Ev(ptr noundef nonnull align 8 dereferenceable(48) %4) #3
  ret void
}

; Function Attrs: mustprogress nounwind uwtable
define void @_ZN4cvc56parser3CmdC2Ev(ptr noundef nonnull align 8 dereferenceable(16) %0) unnamed_addr #7 align 2 {
  %2 = alloca ptr, align 8
  store ptr %0, ptr %2, align 8, !tbaa !21
  %3 = load ptr, ptr %2, align 8
  store ptr getelementptr inbounds inrange(-16, 56) ({ [9 x ptr] }, ptr @_ZTVN4cvc56parser3CmdE, i32 0, i32 0, i32 2), ptr %3, align 8, !tbaa !12
  %4 = getelementptr inbounds nuw %"class.cvc5::parser::Cmd", ptr %3, i32 0, i32 1
  store ptr null, ptr %4, align 8, !tbaa !23
  ret void
}

; Function Attrs: mustprogress nounwind uwtable
define void @_ZN4cvc56parser20GetDifficultyCommandC2Ev(ptr noundef nonnull align 8 dereferenceable(72) %0) unnamed_addr #7 align 2 {
  %2 = alloca ptr, align 8
  store ptr %0, ptr %2, align 8, !tbaa !353
  %3 = load ptr, ptr %2, align 8
  call void @_ZN4cvc56parser3CmdC2Ev(ptr noundef nonnull align 8 dereferenceable(16) %3)
  store ptr getelementptr inbounds inrange(-16, 56) ({ [9 x ptr] }, ptr @_ZTVN4cvc56parser20GetDifficultyCommandE, i32 0, i32 0, i32 2), ptr %3, align 8, !tbaa !12
  %4 = getelementptr inbounds nuw %"class.cvc5::parser::GetDifficultyCommand", ptr %3, i32 0, i32 1
  store ptr null, ptr %4, align 8, !tbaa !355
  %5 = getelementptr inbounds nuw %"class.cvc5::parser::GetDifficultyCommand", ptr %3, i32 0, i32 2
  call void @_ZNSt3mapIN4cvc54TermES1_St4lessIS1_ESaISt4pairIKS1_S1_EEEC2Ev(ptr noundef nonnull align 8 dereferenceable(48) %5) #3
  ret void
}