; Function Attrs: mustprogress nofree norecurse nosync nounwind willreturn memory(argmem: write) uwtable
define void @_ZN4cvc56parser20GetDifficultyCommandC2Ev(ptr noundef nonnull align 8 dereferenceable(72) initializes((0, 24), (32, 36), (40, 48)) %0) unnamed_addr #7 align 2 personality ptr @__gxx_personality_v0 {
  %2 = getelementptr inbounds nuw i8, ptr %0, i64 8
  store ptr null, ptr %2, align 8, !tbaa !48
  store ptr getelementptr inbounds nuw inrange(-16, 56) (i8, ptr @_ZTVN4cvc56parser20GetDifficultyCommandE, i64 16), ptr %0, align 8, !tbaa !6
  %3 = getelementptr inbounds nuw i8, ptr %0, i64 16
  store ptr null, ptr %3, align 8, !tbaa !366
  %4 = getelementptr inbounds nuw i8, ptr %0, i64 32
  store i32 0, ptr %4, align 8, !tbaa !373
  %5 = getelementptr inbounds nuw i8, ptr %0, i64 40
  store ptr null, ptr %5, align 8, !tbaa !314
  %6 = getelementptr inbounds nuw i8, ptr %0, i64 48
  store ptr %4, ptr %6, align 8, !tbaa !300
  %7 = getelementptr inbounds nuw i8, ptr %0, i64 56
  store ptr %4, ptr %7, align 8, !tbaa !374
  %8 = getelementptr inbounds nuw i8, ptr %0, i64 64
  store i64 0, ptr %8, align 8, !tbaa !375
  ret void
}